target datalayout = "e-m:e-p270:32:32-p271:32:32-p272:64:64-i64:64-i128:128-f80:128-n8:16:32:64-S128"
target triple = "x86_64-pc-linux-gnu"

%"class.std::__cxx11::basic_string" = type { %"struct.std::__cxx11::basic_string<char>::_Alloc_hider", i64, %union.anon }
%"struct.std::__cxx11::basic_string<char>::_Alloc_hider" = type { ptr }
%union.anon = type { i64, [8 x i8] }
%struct.LinePrinter = type { i8, i8, i8, i8, %"class.std::__cxx11::basic_string", i32, %"class.std::__cxx11::basic_string" }
%struct.winsize = type { i16, i16, i16, i16 }

@.str.4 = private unnamed_addr constant [2 x i8] c"\0D\00", align 1
@.str.5 = private unnamed_addr constant [3 x i8] c"%s\00", align 1
@.str.6 = private unnamed_addr constant [4 x i8] c"\1B[K\00", align 1
@stdout = external global ptr, align 8
@.str.7 = private unnamed_addr constant [4 x i8] c"%s\0A\00", align 1

; Function Attrs: noinline noreturn nounwind uwtable
define linkonce_odr hidden void @__clang_call_terminate(ptr noundef %0) #7 comdat {
  %2 = call ptr @__cxa_begin_catch(ptr %0) #12
  call void @_ZSt9terminatev() #13
  unreachable
}

; Function Attrs: mustprogress nounwind uwtable
define available_externally noundef ptr @_ZNKSt7__cxx1112basic_stringIcSt11char_traitsIcESaIcEE7_M_dataEv(ptr noundef nonnull align 8 dereferenceable(32) %0) #1 align 2 {
  %2 = alloca ptr, align 8
  store ptr %0, ptr %2, align 8, !tbaa !23
  %3 = load ptr, ptr %2, align 8
  %4 = getelementptr inbounds nuw %"class.std::__cxx11::basic_string", ptr %3, i32 0, i32 0
  %5 = getelementptr inbounds nuw %"struct.std::__cxx11::basic_string<char>::_Alloc_hider", ptr %4, i32 0, i32 0
  %6 = load ptr, ptr %5, align 8, !tbaa !45
  ret ptr %6
}

; Function Attrs: mustprogress uwtable
define available_externally noundef nonnull align 8 dereferenceable(32) ptr @_ZNSt7__cxx1112basic_stringIcSt11char_traitsIcESaIcEE6assignERKS4_(ptr noundef nonnull align 8 dereferenceable(32) %0, ptr noundef nonnull align 8 dereferenceable(32) %1) #0 align 2 {
  %3 = alloca ptr, align 8
  %4 = alloca ptr, align 8
  store ptr %0, ptr %3, align 8, !tbaa !23
  store ptr %1, ptr %4, align 8, !tbaa !23
  %5 = load ptr, ptr %3, align 8
  %6 = load ptr, ptr %4, align 8, !tbaa !23
  call void @_ZNSt7__cxx1112basic_stringIcSt11char_traitsIcESaIcEE9_M_assignERKS4_(ptr noundef nonnull align 8 dereferenceable(32) %5, ptr noundef nonnull align 8 dereferenceable(32) %6)
  ret ptr %5
}

; Function Attrs: mustprogress nounwind uwtable
define available_externally noundef ptr @_ZNKSt7__cxx1112basic_stringIcSt11char_traitsIcESaIcEE5c_strEv(ptr noundef nonnull align 8 dereferenceable(32) %0) #1 align 2 personality ptr @__gxx_personality_v0 {
  %2 = alloca ptr, align 8
  store ptr %0, ptr %2, align 8, !tbaa !23
  %3 = load ptr, ptr %2, align 8
  %4 = invoke noundef ptr @_ZNKSt7__cxx1112basic_stringIcSt11char_traitsIcESaIcEE7_M_dataEv(ptr noundef nonnull align 8 dereferenceable(32) %3)
          to label %5 unwind label %6

5:                                                ; preds = %1
  ret ptr %4

6:                                                ; preds = %1
  %7 = landingpad { ptr, i32 }
          catch ptr null
  %8 = extractvalue { ptr, i32 } %7, 0
  call void @__clang_call_terminate(ptr %8) #13
  unreachable
}

; Function Attrs: mustprogress uwtable
define available_externally noundef nonnull align 8 dereferenceable(32) ptr @_ZNSt7__cxx1112basic_stringIcSt11char_traitsIcESaIcEEaSERKS4_(ptr noundef nonnull align 8 dereferenceable(32) %0, ptr noundef nonnull align 8 dereferenceable(32) %1) #0 align 2 {
  %3 = alloca ptr, align 8
  %4 = alloca ptr, align 8
  store ptr %0, ptr %3, align 8, !tbaa !23
  store ptr %1, ptr %4, align 8, !tbaa !23
  %5 = load ptr, ptr %3, align 8
  %6 = load ptr, ptr %4, align 8, !tbaa !23
  %7 = call noundef nonnull align 8 dereferenceable(32) ptr @_ZNSt7__cxx1112basic_stringIcSt11char_traitsIcESaIcEE6assignERKS4_(ptr noundef nonnull align 8 dereferenceable(32) %5, ptr noundef nonnull align 8 dereferenceable(32) %6)
  ret ptr %7
}

; Function Attrs: mustprogress uwtable
define dso_local void @_ZN11LinePrinter5PrintENSt7__cxx1112basic_stringIcSt11char_traitsIcESaIcEEENS_8LineTypeE(ptr noundef nonnull align 8 dereferenceable(80) %0, ptr noundef %1, i32 noundef %2) #0 align 2 {
  %4 = alloca ptr, align 8
  %5 = alloca ptr, align 8
  %6 = alloca i32, align 4
  %7 = alloca %struct.winsize, align 2
  store ptr %0, ptr %4, align 8, !tbaa !4
  store ptr %1, ptr %5, align 8, !tbaa !23
  store i32 %2, ptr %6, align 4, !tbaa !27
  %8 = load ptr, ptr %4, align 8
  %9 = getelementptr inbounds nuw %struct.LinePrinter, ptr %8, i32 0, i32 3
  %10 = load i8, ptr %9, align 1, !tbaa !17, !range !20, !noundef !21
  %11 = trunc i8 %10 to i1
  br i1 %11, label %12, label %17

12:                                               ; preds = %3
  %13 = getelementptr inbounds nuw %struct.LinePrinter, ptr %8, i32 0, i32 4
  %14 = call noundef nonnull align 8 dereferenceable(32) ptr @_ZNSt7__cxx1112basic_stringIcSt11char_traitsIcESaIcEEaSERKS4_(ptr noundef nonnull align 8 dereferenceable(32) %13, ptr noundef nonnull align 8 dereferenceable(32) %1)
  %15 = load i32, ptr %6, align 4, !tbaa !27
  %16 = getelementptr inbounds nuw %struct.LinePrinter, ptr %8, i32 0, i32 5
  store i32 %15, ptr %16, align 8, !tbaa !28
  br label %53

17:                                               ; preds = %3
  %18 = getelementptr inbounds nuw %struct.LinePrinter, ptr %8, i32 0, i32 0
  %19 = load i8, ptr %18, align 8, !tbaa !19, !range !20, !noundef !21
  %20 = trunc i8 %19 to i1
  br i1 %20, label %21, label %23

21:                                               ; preds = %17
  %22 = call i32 (ptr, ...) @printf(ptr noundef @.str.4)
  br label %23

23:                                               ; preds = %21, %17
  %24 = getelementptr inbounds nuw %struct.LinePrinter, ptr %8, i32 0, i32 0
  %25 = load i8, ptr %24, align 8, !tbaa !19, !range !20, !noundef !21
  %26 = trunc i8 %25 to i1
  br i1 %26, label %27, label %48

27:                                               ; preds = %23
  %28 = load i32, ptr %6, align 4, !tbaa !27
  %29 = icmp eq i32 %28, 1
  br i1 %29, label %30, label %48

30:                                               ; preds = %27
  call void @llvm.lifetime.start.p0(i64 8, ptr %7) #12
  %31 = call i32 (i32, i64, ...) @ioctl(i32 noundef 1, i64 noundef 21523, ptr noundef %7) #12
  %32 = icmp eq i32 %31, 0
  br i1 %32, label %33, label %41

33:                                               ; preds = %30
  %34 = getelementptr inbounds nuw %struct.winsize, ptr %7, i32 0, i32 1
  %35 = load i16, ptr %34, align 2, !tbaa !29
  %36 = icmp ne i16 %35, 0
  br i1 %36, label %37, label %41

37:                                               ; preds = %33
  %38 = getelementptr inbounds nuw %struct.winsize, ptr %7, i32 0, i32 1
  %39 = load i16, ptr %38, align 2, !tbaa !29
  %40 = zext i16 %39 to i64
  call void @_Z18ElideMiddleInPlaceRNSt7__cxx1112basic_stringIcSt11char_traitsIcESaIcEEEm(ptr noundef nonnull align 8 dereferenceable(32) %1, i64 noundef %40)
  br label %41

41:                                               ; preds = %37, %33, %30
  %42 = call noundef ptr @_ZNKSt7__cxx1112basic_stringIcSt11char_traitsIcESaIcEE5c_strEv(ptr noundef nonnull align 8 dereferenceable(32) %1) #12
  %43 = call i32 (ptr, ...) @printf(ptr noundef @.str.5, ptr noundef %42)
  %44 = call i32 (ptr, ...) @printf(ptr noundef @.str.6)
  %45 = load ptr, ptr @stdout, align 8, !tbaa !32
  %46 = call i32 @fflush(ptr noundef %45)
  %47 = getelementptr inbounds nuw %struct.LinePrinter, ptr %8, i32 0, i32 2
  store i8 0, ptr %47, align 2, !tbaa !9
  call void @llvm.lifetime.end.p0(i64 8, ptr %7) #12
  br label %53

48:                                               ; preds = %27, %23
  %49 = call noundef ptr @_ZNKSt7__cxx1112basic_stringIcSt11char_traitsIcESaIcEE5c_strEv(ptr noundef nonnull align 8 dereferenceable(32) %1) #12
  %50 = call i32 (ptr, ...) @printf(ptr noundef @.str.7, ptr noundef %49)
  %51 = load ptr, ptr @stdout, align 8, !tbaa !32
  %52 = call i32 @fflush(ptr noundef %51)
  br label %53

53:                                               ; preds = %12, %48, %41
  ret void
}