; Function Attrs: mustprogress uwtable
define dso_local void @_ZN11LinePrinter5PrintENSt7__cxx1112basic_stringIcSt11char_traitsIcESaIcEEENS_8LineTypeE(ptr noundef nonnull align 8 dereferenceable(80) %0, ptr noundef %1, i32 noundef %2) local_unnamed_addr #0 align 2 personality ptr @__gxx_personality_v0 {
  %4 = alloca %struct.winsize, align 2
  %5 = getelementptr inbounds nuw i8, ptr %0, i64 3
  %6 = load i8, ptr %5, align 1, !tbaa !15, !range !22, !noundef !24
  %7 = trunc nuw i8 %6 to i1
  br i1 %7, label %8, label %11

8:                                                ; preds = %3
  %9 = getelementptr inbounds nuw i8, ptr %0, i64 8
  tail call void @_ZNSt7__cxx1112basic_stringIcSt11char_traitsIcESaIcEE9_M_assignERKS4_(ptr noundef nonnull align 8 dereferenceable(32) %9, ptr noundef nonnull align 8 dereferenceable(32) %1)
  %10 = getelementptr inbounds nuw i8, ptr %0, i64 40
  store i32 %2, ptr %10, align 8, !tbaa !25
  br label %35

11:                                               ; preds = %3
  %12 = load i8, ptr %0, align 8, !tbaa !21, !range !22, !noundef !24
  %13 = trunc nuw i8 %12 to i1
  br i1 %13, label %14, label %.thread

14:                                               ; preds = %11
  %putchar = tail call i32 @putchar(i32 13)
  %.pre = load i8, ptr %0, align 8, !tbaa !21, !range !22
  %15 = trunc nuw i8 %.pre to i1
  %16 = icmp eq i32 %2, 1
  %or.cond = and i1 %16, %15
  br i1 %or.cond, label %17, label %.thread

17:                                               ; preds = %14
  call void @llvm.lifetime.start.p0(i64 8, ptr nonnull %4) #12
  %18 = call i32 (i32, i64, ...) @ioctl(i32 noundef 1, i64 noundef 21523, ptr noundef nonnull %4) #12
  %19 = icmp eq i32 %18, 0
  %20 = getelementptr inbounds nuw i8, ptr %4, i64 2
  %21 = load i16, ptr %20, align 2
  %22 = icmp ne i16 %21, 0
  %or.cond4 = select i1 %19, i1 %22, i1 false
  br i1 %or.cond4, label %23, label %25

23:                                               ; preds = %17
  %24 = zext i16 %21 to i64
  call void @_Z18ElideMiddleInPlaceRNSt7__cxx1112basic_stringIcSt11char_traitsIcESaIcEEEm(ptr noundef nonnull align 8 dereferenceable(32) %1, i64 noundef %24)
  br label %25

25:                                               ; preds = %23, %17
  %26 = load ptr, ptr %1, align 8, !tbaa !20
  %27 = call i32 (ptr, ...) @printf(ptr noundef nonnull dereferenceable(1) @.str.5, ptr noundef %26)
  %28 = call i32 (ptr, ...) @printf(ptr noundef nonnull dereferenceable(1) @.str.6)
  %29 = load ptr, ptr @stdout, align 8, !tbaa !26
  %30 = call i32 @fflush(ptr noundef %29)
  %31 = getelementptr inbounds nuw i8, ptr %0, i64 2
  store i8 0, ptr %31, align 2, !tbaa !4
  call void @llvm.lifetime.end.p0(i64 8, ptr nonnull %4) #12
  br label %35

.thread:                                          ; preds = %11, %14
  %32 = load ptr, ptr %1, align 8, !tbaa !20
  %puts = tail call i32 @puts(ptr nonnull dereferenceable(1) %32)
  %33 = load ptr, ptr @stdout, align 8, !tbaa !26
  %34 = tail call i32 @fflush(ptr noundef %33)
  br label %35

35:                                               ; preds = %.thread, %25, %8
  ret void
}